target datalayout = "e-m:e-p270:32:32-p271:32:32-p272:64:64-i64:64-i128:128-f80:128-n8:16:32:64-S128"
target triple = "x86_64-pc-linux-gnu"

%struct.smt_params_helper = type { ptr, %class.params_ref }
%class.params_ref = type { ptr }
%struct.theory_pb_params = type <{ i32, i8, [3 x i8] }>

@.str.2 = private unnamed_addr constant [4 x i8] c"smt\00", align 1
@.str.3 = private unnamed_addr constant [22 x i8] c"pb.conflict_frequency\00", align 1
@.str.4 = private unnamed_addr constant [21 x i8] c"pb.learn_complements\00", align 1

; Function Attrs: inlinehint mustprogress nounwind uwtable
define linkonce_odr hidden void @_ZN17smt_params_helperD2Ev(ptr noundef nonnull align 8 dereferenceable(16) %0) unnamed_addr #6 comdat align 2 {
  %2 = alloca ptr, align 8
  store ptr %0, ptr %2, align 8, !tbaa !15
  %3 = load ptr, ptr %2, align 8
  %4 = getelementptr inbounds nuw %struct.smt_params_helper, ptr %3, i32 0, i32 1
  call void @_ZN10params_refD1Ev(ptr noundef nonnull align 8 dereferenceable(8) %4) #3
  ret void
}

; Function Attrs: mustprogress uwtable
define linkonce_odr hidden noundef zeroext i1 @_ZNK17smt_params_helper20pb_learn_complementsEv(ptr noundef nonnull align 8 dereferenceable(16) %0) #4 comdat align 2 {
  %2 = alloca ptr, align 8
  store ptr %0, ptr %2, align 8, !tbaa !15
  %3 = load ptr, ptr %2, align 8
  %4 = getelementptr inbounds nuw %struct.smt_params_helper, ptr %3, i32 0, i32 0
  %5 = load ptr, ptr %4, align 8, !tbaa !17
  %6 = getelementptr inbounds nuw %struct.smt_params_helper, ptr %3, i32 0, i32 1
  %7 = call noundef zeroext i1 @_ZNK10params_ref8get_boolEPKcRKS_b(ptr noundef nonnull align 8 dereferenceable(8) %5, ptr noundef @.str.4, ptr noundef nonnull align 8 dereferenceable(8) %6, i1 noundef zeroext true)
  ret i1 %7
}

; Function Attrs: mustprogress uwtable
define linkonce_odr hidden noundef i32 @_ZNK17smt_params_helper21pb_conflict_frequencyEv(ptr noundef nonnull align 8 dereferenceable(16) %0) #4 comdat align 2 {
  %2 = alloca ptr, align 8
  store ptr %0, ptr %2, align 8, !tbaa !15
  %3 = load ptr, ptr %2, align 8
  %4 = getelementptr inbounds nuw %struct.smt_params_helper, ptr %3, i32 0, i32 0
  %5 = load ptr, ptr %4, align 8, !tbaa !17
  %6 = getelementptr inbounds nuw %struct.smt_params_helper, ptr %3, i32 0, i32 1
  %7 = call noundef i32 @_ZNK10params_ref8get_uintEPKcRKS_j(ptr noundef nonnull align 8 dereferenceable(8) %5, ptr noundef @.str.3, ptr noundef nonnull align 8 dereferenceable(8) %6, i32 noundef 1000)
  ret i32 %7
}

; Function Attrs: mustprogress uwtable
define linkonce_odr hidden void @_ZN17smt_params_helperC2ERK10params_ref(ptr noundef nonnull align 8 dereferenceable(16) %0, ptr noundef nonnull align 8 dereferenceable(8) %1) unnamed_addr #4 comdat align 2 {
  %3 = alloca ptr, align 8
  %4 = alloca ptr, align 8
  store ptr %0, ptr %3, align 8, !tbaa !15
  store ptr %1, ptr %4, align 8, !tbaa !8
  %5 = load ptr, ptr %3, align 8
  %6 = getelementptr inbounds nuw %struct.smt_params_helper, ptr %5, i32 0, i32 0
  %7 = load ptr, ptr %4, align 8, !tbaa !8
  store ptr %7, ptr %6, align 8, !tbaa !8
  %8 = getelementptr inbounds nuw %struct.smt_params_helper, ptr %5, i32 0, i32 1
  call void @_ZN7gparams10get_moduleEPKc(ptr dead_on_unwind writable sret(%class.params_ref) align 8 %8, ptr noundef @.str.2)
  ret void
}

; Function Attrs: mustprogress uwtable
define hidden void @_ZN16theory_pb_params11updt_paramsERK10params_ref(ptr noundef nonnull align 4 dereferenceable(5) %0, ptr noundef nonnull align 8 dereferenceable(8) %1) #4 align 2 personality ptr @__gxx_personality_v0 {
  %3 = alloca ptr, align 8
  %4 = alloca ptr, align 8
  %5 = alloca %struct.smt_params_helper, align 8
  %6 = alloca ptr, align 8
  %7 = alloca i32, align 4
  store ptr %0, ptr %3, align 8, !tbaa !3
  store ptr %1, ptr %4, align 8, !tbaa !8
  %8 = load ptr, ptr %3, align 8
  call void @llvm.lifetime.start.p0(i64 16, ptr %5) #3
  %9 = load ptr, ptr %4, align 8, !tbaa !8
  call void @_ZN17smt_params_helperC2ERK10params_ref(ptr noundef nonnull align 8 dereferenceable(16) %5, ptr noundef nonnull align 8 dereferenceable(8) %9)
  %10 = invoke noundef i32 @_ZNK17smt_params_helper21pb_conflict_frequencyEv(ptr noundef nonnull align 8 dereferenceable(16) %5)
          to label %11 unwind label %17

11:                                               ; preds = %2
  %12 = getelementptr inbounds nuw %struct.theory_pb_params, ptr %8, i32 0, i32 0
  store i32 %10, ptr %12, align 4, !tbaa !10
  %13 = invoke noundef zeroext i1 @_ZNK17smt_params_helper20pb_learn_complementsEv(ptr noundef nonnull align 8 dereferenceable(16) %5)
          to label %14 unwind label %17

14:                                               ; preds = %11
  %15 = getelementptr inbounds nuw %struct.theory_pb_params, ptr %8, i32 0, i32 1
  %16 = zext i1 %13 to i8
  store i8 %16, ptr %15, align 4, !tbaa !14
  call void @_ZN17smt_params_helperD2Ev(ptr noundef nonnull align 8 dereferenceable(16) %5) #3
  call void @llvm.lifetime.end.p0(i64 16, ptr %5) #3
  ret void

17:                                               ; preds = %11, %2
  %18 = landingpad { ptr, i32 }
          cleanup
  %19 = extractvalue { ptr, i32 } %18, 0
  store ptr %19, ptr %6, align 8
  %20 = extractvalue { ptr, i32 } %18, 1
  store i32 %20, ptr %7, align 4
  call void @_ZN17smt_params_helperD2Ev(ptr noundef nonnull align 8 dereferenceable(16) %5) #3
  call void @llvm.lifetime.end.p0(i64 16, ptr %5) #3
  br label %21

21:                                               ; preds = %17
  %22 = load ptr, ptr %6, align 8
  %23 = load i32, ptr %7, align 4
  %24 = insertvalue { ptr, i32 } poison, ptr %22, 0
  %25 = insertvalue { ptr, i32 } %24, i32 %23, 1
  resume { ptr, i32 } %25
}