; Function Attrs: mustprogress uwtable
define hidden void @_ZN16theory_pb_params11updt_paramsERK10params_ref(ptr noundef nonnull writeonly align 4 captures(none) dereferenceable(5) %0, ptr noundef nonnull align 8 dereferenceable(8) %1) local_unnamed_addr #3 align 2 personality ptr @__gxx_personality_v0 {
  %3 = alloca %struct.smt_params_helper, align 8
  call void @llvm.lifetime.start.p0(i64 16, ptr nonnull %3) #6
  store ptr %1, ptr %3, align 8, !tbaa !3
  %4 = getelementptr inbounds nuw i8, ptr %3, i64 8
  call void @_ZN7gparams10get_moduleEPKc(ptr dead_on_unwind nonnull writable sret(%class.params_ref) align 8 %4, ptr noundef nonnull @.str.2)
  %5 = load ptr, ptr %3, align 8, !tbaa !8
  %6 = invoke noundef i32 @_ZNK10params_ref8get_uintEPKcRKS_j(ptr noundef nonnull align 8 dereferenceable(8) %5, ptr noundef nonnull @.str.3, ptr noundef nonnull align 8 dereferenceable(8) %4, i32 noundef 1000)
          to label %_ZNK17smt_params_helper21pb_conflict_frequencyEv.exit unwind label %11

_ZNK17smt_params_helper21pb_conflict_frequencyEv.exit: ; preds = %2
  store i32 %6, ptr %0, align 4, !tbaa !12
  %7 = load ptr, ptr %3, align 8, !tbaa !8
  %8 = invoke noundef zeroext i1 @_ZNK10params_ref8get_boolEPKcRKS_b(ptr noundef nonnull align 8 dereferenceable(8) %7, ptr noundef nonnull @.str.4, ptr noundef nonnull align 8 dereferenceable(8) %4, i1 noundef zeroext true)
          to label %_ZNK17smt_params_helper20pb_learn_complementsEv.exit unwind label %11

_ZNK17smt_params_helper20pb_learn_complementsEv.exit: ; preds = %_ZNK17smt_params_helper21pb_conflict_frequencyEv.exit
  %9 = getelementptr inbounds nuw i8, ptr %0, i64 4
  %10 = zext i1 %8 to i8
  store i8 %10, ptr %9, align 4, !tbaa !16
  call void @_ZN10params_refD1Ev(ptr noundef nonnull align 8 dereferenceable(8) %4) #6
  call void @llvm.lifetime.end.p0(i64 16, ptr nonnull %3) #6
  ret void

11:                                               ; preds = %_ZNK17smt_params_helper21pb_conflict_frequencyEv.exit, %2
  %12 = landingpad { ptr, i32 }
          cleanup
  call void @_ZN10params_refD1Ev(ptr noundef nonnull align 8 dereferenceable(8) %4) #6
  call void @llvm.lifetime.end.p0(i64 16, ptr nonnull %3) #6
  resume { ptr, i32 } %12
}